; ModuleID = '63/1270.c'
source_filename = "63/1270.c"
target datalayout = "e-m:e-p270:32:32-p271:32:32-p272:64:64-i64:64-f80:128-n8:16:32:64-S128"
target triple = "x86_64-pc-linux-gnu"

@.str = private unnamed_addr constant [5 x i8] c"%d%d\00", align 1
@.str.1 = private unnamed_addr constant [3 x i8] c"%d\00", align 1
@.str.2 = private unnamed_addr constant [2 x i8] c"\0A\00", align 1
@.str.3 = private unnamed_addr constant [4 x i8] c" %d\00", align 1

; Function Attrs: noinline nounwind uwtable
define dso_local i32 @main() #0 {
  %1 = alloca i32, align 4
  %2 = alloca i32, align 4
  %3 = alloca i32, align 4
  %4 = alloca i32, align 4
  %5 = alloca i32, align 4
  %6 = alloca i32*, align 8
  %7 = alloca i32, align 4
  %8 = alloca i32, align 4
  %9 = alloca i32, align 4
  %10 = alloca i32*, align 8
  %11 = alloca i32*, align 8
  store i32 0, i32* %1, align 4
  %12 = call i32 (i8*, ...) @__isoc99_scanf(i8* getelementptr inbounds ([5 x i8], [5 x i8]* @.str, i64 0, i64 0), i32* %2, i32* %3)
  %13 = load i32, i32* %2, align 4
  %14 = sext i32 %13 to i64
  %15 = mul i64 4, %14
  %16 = load i32, i32* %3, align 4
  %17 = sext i32 %16 to i64
  %18 = mul i64 %15, %17
  %19 = call noalias i8* @malloc(i64 %18) #3
  %20 = bitcast i8* %19 to i32*
  store i32* %20, i32** %6, align 8
  store i32 0, i32* %7, align 4
  br label %21

21:                                               ; preds = %33, %0
  %22 = load i32, i32* %7, align 4
  %23 = load i32, i32* %2, align 4
  %24 = load i32, i32* %3, align 4
  %25 = mul nsw i32 %23, %24
  %26 = icmp slt i32 %22, %25
  br i1 %26, label %27, label %36

27:                                               ; preds = %21
  %28 = load i32*, i32** %6, align 8
  %29 = load i32, i32* %7, align 4
  %30 = sext i32 %29 to i64
  %31 = getelementptr inbounds i32, i32* %28, i64 %30
  %32 = call i32 (i8*, ...) @__isoc99_scanf(i8* getelementptr inbounds ([3 x i8], [3 x i8]* @.str.1, i64 0, i64 0), i32* %31)
  br label %33

33:                                               ; preds = %27
  %34 = load i32, i32* %7, align 4
  %35 = add nsw i32 %34, 1
  store i32 %35, i32* %7, align 4
  br label %21

36:                                               ; preds = %21
  %37 = call i32 (i8*, ...) @__isoc99_scanf(i8* getelementptr inbounds ([5 x i8], [5 x i8]* @.str, i64 0, i64 0), i32* %4, i32* %5)
  %38 = load i32, i32* %4, align 4
  %39 = sext i32 %38 to i64
  %40 = mul i64 4, %39
  %41 = load i32, i32* %5, align 4
  %42 = sext i32 %41 to i64
  %43 = mul i64 %40, %42
  %44 = call noalias i8* @malloc(i64 %43) #3
  %45 = bitcast i8* %44 to i32*
  store i32* %45, i32** %10, align 8
  store i32 0, i32* %7, align 4
  br label %46

46:                                               ; preds = %58, %36
  %47 = load i32, i32* %7, align 4
  %48 = load i32, i32* %4, align 4
  %49 = load i32, i32* %5, align 4
  %50 = mul nsw i32 %48, %49
  %51 = icmp slt i32 %47, %50
  br i1 %51, label %52, label %61

52:                                               ; preds = %46
  %53 = load i32*, i32** %10, align 8
  %54 = load i32, i32* %7, align 4
  %55 = sext i32 %54 to i64
  %56 = getelementptr inbounds i32, i32* %53, i64 %55
  %57 = call i32 (i8*, ...) @__isoc99_scanf(i8* getelementptr inbounds ([3 x i8], [3 x i8]* @.str.1, i64 0, i64 0), i32* %56)
  br label %58

58:                                               ; preds = %52
  %59 = load i32, i32* %7, align 4
  %60 = add nsw i32 %59, 1
  store i32 %60, i32* %7, align 4
  br label %46

61:                                               ; preds = %46
  %62 = load i32, i32* %2, align 4
  %63 = sext i32 %62 to i64
  %64 = mul i64 4, %63
  %65 = load i32, i32* %5, align 4
  %66 = sext i32 %65 to i64
  %67 = mul i64 %64, %66
  %68 = call noalias i8* @malloc(i64 %67) #3
  %69 = bitcast i8* %68 to i32*
  store i32* %69, i32** %11, align 8
  store i32 0, i32* %8, align 4
  br label %70

70:                                               ; preds = %125, %61
  %71 = load i32, i32* %8, align 4
  %72 = load i32, i32* %2, align 4
  %73 = icmp slt i32 %71, %72
  br i1 %73, label %74, label %128

74:                                               ; preds = %70
  store i32 0, i32* %7, align 4
  br label %75

75:                                               ; preds = %121, %74
  %76 = load i32, i32* %7, align 4
  %77 = load i32, i32* %5, align 4
  %78 = icmp slt i32 %76, %77
  br i1 %78, label %79, label %124

79:                                               ; preds = %75
  store i32 0, i32* %9, align 4
  br label %80

80:                                               ; preds = %117, %79
  %81 = load i32, i32* %9, align 4
  %82 = load i32, i32* %3, align 4
  %83 = icmp slt i32 %81, %82
  br i1 %83, label %84, label %120

84:                                               ; preds = %80
  %85 = load i32*, i32** %6, align 8
  %86 = load i32, i32* %8, align 4
  %87 = load i32, i32* %3, align 4
  %88 = mul nsw i32 %86, %87
  %89 = sext i32 %88 to i64
  %90 = getelementptr inbounds i32, i32* %85, i64 %89
  %91 = load i32, i32* %9, align 4
  %92 = sext i32 %91 to i64
  %93 = getelementptr inbounds i32, i32* %90, i64 %92
  %94 = load i32, i32* %93, align 4
  %95 = load i32*, i32** %10, align 8
  %96 = load i32, i32* %9, align 4
  %97 = load i32, i32* %5, align 4
  %98 = mul nsw i32 %96, %97
  %99 = sext i32 %98 to i64
  %100 = getelementptr inbounds i32, i32* %95, i64 %99
  %101 = load i32, i32* %7, align 4
  %102 = sext i32 %101 to i64
  %103 = getelementptr inbounds i32, i32* %100, i64 %102
  %104 = load i32, i32* %103, align 4
  %105 = mul nsw i32 %94, %104
  %106 = load i32*, i32** %11, align 8
  %107 = load i32, i32* %7, align 4
  %108 = sext i32 %107 to i64
  %109 = getelementptr inbounds i32, i32* %106, i64 %108
  %110 = load i32, i32* %8, align 4
  %111 = load i32, i32* %5, align 4
  %112 = mul nsw i32 %110, %111
  %113 = sext i32 %112 to i64
  %114 = getelementptr inbounds i32, i32* %109, i64 %113
  %115 = load i32, i32* %114, align 4
  %116 = add nsw i32 %115, %105
  store i32 %116, i32* %114, align 4
  br label %117

117:                                              ; preds = %84
  %118 = load i32, i32* %9, align 4
  %119 = add nsw i32 %118, 1
  store i32 %119, i32* %9, align 4
  br label %80

120:                                              ; preds = %80
  br label %121

121:                                              ; preds = %120
  %122 = load i32, i32* %7, align 4
  %123 = add nsw i32 %122, 1
  store i32 %123, i32* %7, align 4
  br label %75

124:                                              ; preds = %75
  br label %125

125:                                              ; preds = %124
  %126 = load i32, i32* %8, align 4
  %127 = add nsw i32 %126, 1
  store i32 %127, i32* %8, align 4
  br label %70

128:                                              ; preds = %70
  store i32 0, i32* %8, align 4
  br label %129

129:                                              ; preds = %174, %128
  %130 = load i32, i32* %8, align 4
  %131 = load i32, i32* %2, align 4
  %132 = icmp slt i32 %130, %131
  br i1 %132, label %133, label %177

133:                                              ; preds = %129
  %134 = load i32*, i32** %11, align 8
  %135 = load i32, i32* %8, align 4
  %136 = load i32, i32* %5, align 4
  %137 = mul nsw i32 %135, %136
  %138 = sext i32 %137 to i64
  %139 = getelementptr inbounds i32, i32* %134, i64 %138
  %140 = load i32, i32* %139, align 4
  %141 = call i32 (i8*, ...) @printf(i8* getelementptr inbounds ([3 x i8], [3 x i8]* @.str.1, i64 0, i64 0), i32 %140)
  %142 = load i32, i32* %5, align 4
  %143 = icmp eq i32 %142, 1
  br i1 %143, label %144, label %146

144:                                              ; preds = %133
  %145 = call i32 (i8*, ...) @printf(i8* getelementptr inbounds ([2 x i8], [2 x i8]* @.str.2, i64 0, i64 0))
  br label %146

146:                                              ; preds = %144, %133
  store i32 1, i32* %7, align 4
  br label %147

147:                                              ; preds = %170, %146
  %148 = load i32, i32* %7, align 4
  %149 = load i32, i32* %5, align 4
  %150 = icmp slt i32 %148, %149
  br i1 %150, label %151, label %173

151:                                              ; preds = %147
  %152 = load i32*, i32** %11, align 8
  %153 = load i32, i32* %7, align 4
  %154 = sext i32 %153 to i64
  %155 = getelementptr inbounds i32, i32* %152, i64 %154
  %156 = load i32, i32* %8, align 4
  %157 = load i32, i32* %5, align 4
  %158 = mul nsw i32 %156, %157
  %159 = sext i32 %158 to i64
  %160 = getelementptr inbounds i32, i32* %155, i64 %159
  %161 = load i32, i32* %160, align 4
  %162 = call i32 (i8*, ...) @printf(i8* getelementptr inbounds ([4 x i8], [4 x i8]* @.str.3, i64 0, i64 0), i32 %161)
  %163 = load i32, i32* %7, align 4
  %164 = load i32, i32* %5, align 4
  %165 = sub nsw i32 %164, 1
  %166 = icmp eq i32 %163, %165
  br i1 %166, label %167, label %169

167:                                              ; preds = %151
  %168 = call i32 (i8*, ...) @printf(i8* getelementptr inbounds ([2 x i8], [2 x i8]* @.str.2, i64 0, i64 0))
  br label %169

169:                                              ; preds = %167, %151
  br label %170

170:                                              ; preds = %169
  %171 = load i32, i32* %7, align 4
  %172 = add nsw i32 %171, 1
  store i32 %172, i32* %7, align 4
  br label %147

173:                                              ; preds = %147
  br label %174

174:                                              ; preds = %173
  %175 = load i32, i32* %8, align 4
  %176 = add nsw i32 %175, 1
  store i32 %176, i32* %8, align 4
  br label %129

177:                                              ; preds = %129
  %178 = load i32*, i32** %6, align 8
  %179 = bitcast i32* %178 to i8*
  call void @free(i8* %179) #3
  %180 = load i32*, i32** %10, align 8
  %181 = bitcast i32* %180 to i8*
  call void @free(i8* %181) #3
  %182 = load i32*, i32** %11, align 8
  %183 = bitcast i32* %182 to i8*
  call void @free(i8* %183) #3
  ret i32 0
}

declare dso_local i32 @__isoc99_scanf(i8*, ...) #1

; Function Attrs: nounwind
declare dso_local noalias i8* @malloc(i64) #2

declare dso_local i32 @printf(i8*, ...) #1

; Function Attrs: nounwind
declare dso_local void @free(i8*) #2


!llvm.module.flags = !{!0}
!llvm.ident = !{!1}

!0 = !{i32 1, !"wchar_size", i32 4}
!1 = !{!"clang version 10.0.0-4ubuntu1 "}
